; Function Attrs: mustprogress uwtable
define hidden void @_ZN13hilbert_basis6add_eqERK6vectorI8rationalLb1EjE(ptr noundef nonnull align 8 dereferenceable(127) %this, ptr nocapture noundef nonnull readonly align 8 dereferenceable(8) %v) local_unnamed_addr #3 align 2 personality ptr @__gxx_personality_v0 {
entry:
  %ref.tmp = alloca %class.rational, align 8
  %m_kind.i.i.i = getelementptr inbounds i8, ptr %ref.tmp, i64 4
  %m_ptr.i.i.i = getelementptr inbounds i8, ptr %ref.tmp, i64 8
  store ptr null, ptr %m_ptr.i.i.i, align 8
  %m_den.i.i = getelementptr inbounds i8, ptr %ref.tmp, i64 16
  store i32 1, ptr %m_den.i.i, align 8
  %m_kind.i1.i.i = getelementptr inbounds i8, ptr %ref.tmp, i64 20
  store i8 0, ptr %m_kind.i1.i.i, align 4
  %m_ptr.i4.i.i = getelementptr inbounds i8, ptr %ref.tmp, i64 24
  store ptr null, ptr %m_ptr.i4.i.i, align 8
  %0 = load ptr, ptr @_ZN8rational13g_mpq_managerE, align 8
  store i32 0, ptr %ref.tmp, align 8
  store i8 0, ptr %m_kind.i.i.i, align 4
  call void @_ZN11mpz_managerILb1EE3delEPS0_R3mpz(ptr noundef nonnull %0, ptr noundef nonnull align 8 dereferenceable(16) %m_den.i.i)
  store i32 1, ptr %m_den.i.i, align 8
  invoke void @_ZN13hilbert_basis6add_eqERK6vectorI8rationalLb1EjERKS1_(ptr noundef nonnull align 8 dereferenceable(127) %this, ptr noundef nonnull align 8 dereferenceable(8) %v, ptr noundef nonnull align 8 dereferenceable(32) %ref.tmp)
          to label %invoke.cont unwind label %lpad

invoke.cont:                                      ; preds = %entry
  %1 = load ptr, ptr @_ZN8rational13g_mpq_managerE, align 8
  invoke void @_ZN11mpz_managerILb1EE3delEPS0_R3mpz(ptr noundef %1, ptr noundef nonnull align 8 dereferenceable(16) %ref.tmp)
          to label %.noexc.i unwind label %terminate.lpad.i

.noexc.i:                                         ; preds = %invoke.cont
  invoke void @_ZN11mpz_managerILb1EE3delEPS0_R3mpz(ptr noundef %1, ptr noundef nonnull align 8 dereferenceable(16) %m_den.i.i)
          to label %_ZN8rationalD2Ev.exit unwind label %terminate.lpad.i

terminate.lpad.i:                                 ; preds = %.noexc.i, %invoke.cont
  %2 = landingpad { ptr, i32 }
          catch ptr null
  %3 = extractvalue { ptr, i32 } %2, 0
  call void @__clang_call_terminate(ptr %3) #23
  unreachable

_ZN8rationalD2Ev.exit:                            ; preds = %.noexc.i
  ret void

lpad:                                             ; preds = %entry
  %4 = landingpad { ptr, i32 }
          cleanup
  call void @_ZN8rationalD2Ev(ptr noundef nonnull align 8 dereferenceable(32) %ref.tmp) #22
  resume { ptr, i32 } %4
}